Certificate:
    Data:
        Version: 3 (0x2)
        Serial Number: 1 (0x1)
    Signature Algorithm: sha256WithRSAEncryption
        Issuer: CN=devcert
        Validity
            Not Before: Jun  1 23:39:55 2020 GMT
            Not After : Sep  4 23:39:55 2022 GMT
        Subject: CN=localhost
        Subject Public Key Info:
            Public Key Algorithm: rsaEncryption
                Public-Key: (2048 bit)
                Modulus:
                    00:a3:71:b4:cd:c7:9c:fa:f0:c9:0e:38:09:07:e0:
                    2f:7f:14:3b:2d:fb:5e:7f:86:22:0b:16:46:cc:c6:
                    c6:1f:9f:c7:c5:bb:34:1b:21:32:ff:ff:b2:2b:26:
                    27:b3:92:5b:57:b7:a1:05:5f:5b:9b:60:48:46:6d:
                    c4:6f:6a:a8:1e:03:06:fa:6a:89:03:86:6d:6a:10:
                    3d:7d:0c:1e:ce:72:3a:41:28:eb:23:9e:b0:43:c2:
                    3f:69:76:34:1f:b6:ce:a7:0e:16:80:6c:26:e6:77:
                    64:24:24:cd:bb:dd:ac:e8:5e:20:5c:44:8e:0a:d2:
                    b7:ab:1a:ef:bc:88:0a:c7:ee:d8:4d:04:80:3b:f1:
                    fe:1e:0b:cf:0e:48:8c:51:b2:bb:0f:3d:06:8f:04:
                    08:ca:e0:47:fd:d1:92:66:d9:54:15:4e:80:f8:ec:
                    8e:3d:72:c1:fd:b8:63:df:47:56:fb:4b:7a:d8:38:
                    91:69:ad:8e:d0:e4:d4:6b:52:46:8b:45:e7:9e:32:
                    90:93:54:2d:7b:45:21:75:c8:9c:0c:81:dc:7e:ae:
                    47:88:e0:5c:83:0b:86:c4:ad:ad:8b:94:ff:42:5c:
                    bc:74:b9:89:b9:9b:bd:d7:ec:18:a3:82:59:98:ec:
                    86:33:df:0a:08:ce:4f:22:65:a1:da:33:ca:ee:c9:
                    67:a3
                Exponent: 65537 (0x10001)
        X509v3 extensions:
            X509v3 Basic Constraints: critical
                CA:FALSE
            X509v3 Subject Key Identifier: 
                FF:3C:A4:AA:33:5F:34:A2:32:EC:21:8F:C2:81:B1:DB:86:0D:2D:1F
            X509v3 Authority Key Identifier: 
                keyid:AF:F8:01:B5:CF:F5:52:E0:FF:D4:9E:85:CD:13:A2:93:08:00:94:C0
                DirName:/CN=devcert
                serial:F5:AE:78:99:8D:2C:8D:8C

            X509v3 Key Usage: critical
                Digital Signature, Key Encipherment
            X509v3 Extended Key Usage: 
                TLS Web Server Authentication
            X509v3 Subject Alternative Name: 
                DNS:localhost, DNS:*.localhost
    Signature Algorithm: sha256WithRSAEncryption
         b9:1d:70:7c:69:4d:20:e9:e5:ba:f8:a1:0b:ad:f5:31:de:aa:
         c8:ff:96:b9:c1:f7:7c:a7:cb:c2:e2:8c:b0:58:f9:c1:83:7b:
         a9:b1:a8:c7:f3:64:32:83:ea:1d:cb:3a:2e:46:63:2e:96:74:
         5f:c7:d9:ec:ed:95:ba:eb:98:88:33:e2:da:5e:8c:94:2e:42:
         e4:82:87:ee:59:08:52:00:43:14:1c:7f:eb:c8:d3:ad:95:98:
         97:09:10:67:80:e4:a6:3b:b0:a8:eb:24:c9:9a:82:9f:17:3f:
         9a:1f:1c:82:eb:ed:8c:f2:a7:29:26:5f:22:b2:bc:b3:a5:56:
         38:37:68:b1:86:00:b6:4a:16:4f:e3:d6:36:56:01:6b:70:39:
         c9:6e:d0:3a:ae:f0:54:3e:d4:42:53:66:0f:4b:2a:d1:df:16:
         2a:e9:a8:3c:1c:0d:90:db:11:ac:d1:16:8d:9f:ac:7e:b5:74:
         32:5b:0f:21:45:a1:e8:af:09:7f:1d:6c:ee:91:a4:c7:4e:06:
         9f:91:e1:3e:fe:9a:25:b4:31:4f:cb:14:48:82:1d:c5:5f:1b:
         a3:63:41:39:24:36:20:6b:11:dd:6b:ba:54:68:2e:89:78:e3:
         b9:cd:d5:07:0a:f4:f1:d3:80:34:c4:25:0a:95:98:bc:55:bd:
         ca:43:60:71
-----BEGIN CERTIFICATE-----
MIIDXjCCAkagAwIBAgIBATANBgkqhkiG9w0BAQsFADASMRAwDgYDVQQDDAdkZXZj
ZXJ0MB4XDTIwMDYwMTIzMzk1NVoXDTIyMDkwNDIzMzk1NVowFDESMBAGA1UEAwwJ
bG9jYWxob3N0MIIBIjANBgkqhkiG9w0BAQEFAAOCAQ8AMIIBCgKCAQEAo3G0zcec
+vDJDjgJB+AvfxQ7Lftef4YiCxZGzMbGH5/Hxbs0GyEy//+yKyYns5JbV7ehBV9b
m2BIRm3Eb2qoHgMG+mqJA4ZtahA9fQweznI6QSjrI56wQ8I/aXY0H7bOpw4WgGwm
5ndkJCTNu92s6F4gXESOCtK3qxrvvIgKx+7YTQSAO/H+HgvPDkiMUbK7Dz0GjwQI
yuBH/dGSZtlUFU6A+OyOPXLB/bhj30dW+0t62DiRaa2O0OTUa1JGi0XnnjKQk1Qt
e0UhdcicDIHcfq5HiOBcgwuGxK2ti5T/Qly8dLmJuZu91+wYo4JZmOyGM98KCM5P
ImWh2jPK7slnowIDAQABo4G8MIG5MAwGA1UdEwEB/wQCMAAwHQYDVR0OBBYEFP88
pKozXzSiMuwhj8KBsduGDS0fMEIGA1UdIwQ7MDmAFK/4AbXP9VLg/9Sehc0TopMI
AJTAoRakFDASMRAwDgYDVQQDDAdkZXZjZXJ0ggkA9a54mY0sjYwwDgYDVR0PAQH/
BAQDAgWgMBMGA1UdJQQMMAoGCCsGAQUFBwMBMCEGA1UdEQQaMBiCCWxvY2FsaG9z
dIILKi5sb2NhbGhvc3QwDQYJKoZIhvcNAQELBQADggEBALkdcHxpTSDp5br4oQut
9THeqsj/lrnB93yny8LijLBY+cGDe6mxqMfzZDKD6h3LOi5GYy6WdF/H2eztlbrr
mIgz4tpejJQuQuSCh+5ZCFIAQxQcf+vI062VmJcJEGeA5KY7sKjrJMmagp8XP5of
HILr7YzypykmXyKyvLOlVjg3aLGGALZKFk/j1jZWAWtwOclu0Dqu8FQ+1EJTZg9L
KtHfFirpqDwcDZDbEazRFo2frH61dDJbDyFFoeivCX8dbO6RpMdOBp+R4T7+miW0
MU/LFEiCHcVfG6NjQTkkNiBrEd1rulRoLol447nN1QcK9PHTgDTEJQqVmLxVvcpD
YHE=
-----END CERTIFICATE-----
